target datalayout = "e-m:e-p270:32:32-p271:32:32-p272:64:64-i64:64-i128:128-f80:128-n8:16:32:64-S128"
target triple = "x86_64-pc-linux-gnu"

%struct._bluetooth_data_t = type { i32, i32, ptr, ptr, ptr, ptr, ptr, ptr, ptr, ptr, ptr, ptr, ptr, i32, %union.anon }
%union.anon = type { ptr }

@hf_bthci_evt_bd_addr = internal global i32 0, align 4
@hf_bthci_evt_clock_offset = internal global i32 0, align 4
@hf_bthci_evt_page_scan_repetition_mode = internal global i32 0, align 4
@hf_bthci_evt_reserved = internal global i32 0, align 4
@hf_bthci_evt_num_responses = internal global i32 0, align 4
@hf_bthci_evt_rssi = internal global i32 0, align 4
@btcommon_cod_handle = internal global ptr null, align 8

; Function Attrs: null_pointer_is_valid sspstrong uwtable
define internal i32 @dissect_bthci_evt_inquire_result_with_rssi(ptr noundef %0, i32 noundef %1, ptr noundef %2, ptr noundef %3, ptr noundef %4, ptr noundef %5) #1 {
  %7 = alloca ptr, align 8
  %8 = alloca i32, align 4
  %9 = alloca ptr, align 8
  %10 = alloca ptr, align 8
  %11 = alloca ptr, align 8
  %12 = alloca ptr, align 8
  %13 = alloca i8, align 1
  %14 = alloca i8, align 1
  store ptr %0, ptr %7, align 8
  store i32 %1, ptr %8, align 4
  store ptr %2, ptr %9, align 8
  store ptr %3, ptr %10, align 8
  store ptr %4, ptr %11, align 8
  store ptr %5, ptr %12, align 8
  call void @llvm.lifetime.start.p0(i64 1, ptr %13) #11
  call void @llvm.lifetime.start.p0(i64 1, ptr %14) #11
  %15 = load ptr, ptr %7, align 8
  %16 = load i32, ptr %8, align 4
  %17 = call zeroext i8 @tvb_get_uint8(ptr noundef %15, i32 noundef %16)
  store i8 %17, ptr %14, align 1
  %18 = load ptr, ptr %10, align 8
  %19 = load i32, ptr @hf_bthci_evt_num_responses, align 4
  %20 = load ptr, ptr %7, align 8
  %21 = load i32, ptr %8, align 4
  %22 = call ptr @proto_tree_add_item(ptr noundef %18, i32 noundef %19, ptr noundef %20, i32 noundef %21, i32 noundef 1, i32 noundef -2147483648)
  %23 = load i32, ptr %8, align 4
  %24 = add i32 %23, 1
  store i32 %24, ptr %8, align 4
  store i8 0, ptr %13, align 1
  br label %25

25:                                               ; preds = %89, %6
  %26 = load i8, ptr %13, align 1
  %27 = zext i8 %26 to i32
  %28 = load i8, ptr %14, align 1
  %29 = zext i8 %28 to i32
  %30 = icmp slt i32 %27, %29
  br i1 %30, label %31, label %92

31:                                               ; preds = %25
  %32 = load i32, ptr @hf_bthci_evt_bd_addr, align 4
  %33 = load ptr, ptr %9, align 8
  %34 = load ptr, ptr %10, align 8
  %35 = load ptr, ptr %7, align 8
  %36 = load i32, ptr %8, align 4
  %37 = load ptr, ptr %11, align 8
  %38 = getelementptr inbounds nuw %struct._bluetooth_data_t, ptr %37, i32 0, i32 0
  %39 = load i32, ptr %38, align 8
  %40 = load ptr, ptr %11, align 8
  %41 = getelementptr inbounds nuw %struct._bluetooth_data_t, ptr %40, i32 0, i32 1
  %42 = load i32, ptr %41, align 4
  %43 = load i8, ptr %13, align 1
  %44 = zext i8 %43 to i32
  %45 = icmp eq i32 %44, 0
  br i1 %45, label %46, label %48

46:                                               ; preds = %31
  %47 = load ptr, ptr %12, align 8
  br label %49

48:                                               ; preds = %31
  br label %49

49:                                               ; preds = %48, %46
  %50 = phi ptr [ %47, %46 ], [ null, %48 ]
  %51 = call i32 @dissect_bd_addr(i32 noundef %32, ptr noundef %33, ptr noundef %34, ptr noundef %35, i32 noundef %36, i1 noundef zeroext false, i32 noundef %39, i32 noundef %42, ptr noundef %50)
  store i32 %51, ptr %8, align 4
  %52 = load ptr, ptr %10, align 8
  %53 = load i32, ptr @hf_bthci_evt_page_scan_repetition_mode, align 4
  %54 = load ptr, ptr %7, align 8
  %55 = load i32, ptr %8, align 4
  %56 = call ptr @proto_tree_add_item(ptr noundef %52, i32 noundef %53, ptr noundef %54, i32 noundef %55, i32 noundef 1, i32 noundef -2147483648)
  %57 = load i32, ptr %8, align 4
  %58 = add i32 %57, 1
  store i32 %58, ptr %8, align 4
  %59 = load ptr, ptr %10, align 8
  %60 = load i32, ptr @hf_bthci_evt_reserved, align 4
  %61 = load ptr, ptr %7, align 8
  %62 = load i32, ptr %8, align 4
  %63 = call ptr @proto_tree_add_item(ptr noundef %59, i32 noundef %60, ptr noundef %61, i32 noundef %62, i32 noundef 1, i32 noundef 0)
  %64 = load i32, ptr %8, align 4
  %65 = add i32 %64, 1
  store i32 %65, ptr %8, align 4
  %66 = load ptr, ptr @btcommon_cod_handle, align 8
  %67 = load ptr, ptr %7, align 8
  %68 = load i32, ptr %8, align 4
  %69 = call ptr @tvb_new_subset_length(ptr noundef %67, i32 noundef %68, i32 noundef 3)
  %70 = load ptr, ptr %9, align 8
  %71 = load ptr, ptr %10, align 8
  %72 = call i32 @call_dissector(ptr noundef %66, ptr noundef %69, ptr noundef %70, ptr noundef %71)
  %73 = load i32, ptr %8, align 4
  %74 = add i32 %73, 3
  store i32 %74, ptr %8, align 4
  %75 = load ptr, ptr %10, align 8
  %76 = load i32, ptr @hf_bthci_evt_clock_offset, align 4
  %77 = load ptr, ptr %7, align 8
  %78 = load i32, ptr %8, align 4
  %79 = call ptr @proto_tree_add_item(ptr noundef %75, i32 noundef %76, ptr noundef %77, i32 noundef %78, i32 noundef 2, i32 noundef -2147483648)
  %80 = load i32, ptr %8, align 4
  %81 = add i32 %80, 2
  store i32 %81, ptr %8, align 4
  %82 = load ptr, ptr %10, align 8
  %83 = load i32, ptr @hf_bthci_evt_rssi, align 4
  %84 = load ptr, ptr %7, align 8
  %85 = load i32, ptr %8, align 4
  %86 = call ptr @proto_tree_add_item(ptr noundef %82, i32 noundef %83, ptr noundef %84, i32 noundef %85, i32 noundef 1, i32 noundef -2147483648)
  %87 = load i32, ptr %8, align 4
  %88 = add i32 %87, 1
  store i32 %88, ptr %8, align 4
  br label %89

89:                                               ; preds = %49
  %90 = load i8, ptr %13, align 1
  %91 = add i8 %90, 1
  store i8 %91, ptr %13, align 1
  br label %25, !llvm.loop !21

92:                                               ; preds = %25
  %93 = load i32, ptr %8, align 4
  call void @llvm.lifetime.end.p0(i64 1, ptr %14) #11
  call void @llvm.lifetime.end.p0(i64 1, ptr %13) #11
  ret i32 %93
}