; Function Attrs: null_pointer_is_valid sspstrong uwtable
define internal fastcc noundef i32 @dissect_bthci_evt_inquire_result_with_rssi(ptr noundef %0, ptr noundef %1, ptr noundef %2, ptr noundef nonnull readonly captures(none) %3, ptr noundef %4) unnamed_addr #1 {
  %6 = tail call zeroext i8 @tvb_get_uint8(ptr noundef %0, i32 noundef 2)
  %7 = load i32, ptr @hf_bthci_evt_num_responses, align 4
  %8 = tail call ptr @proto_tree_add_item(ptr noundef %2, i32 noundef %7, ptr noundef %0, i32 noundef 2, i32 noundef 1, i32 noundef -2147483648)
  %.not = icmp eq i8 %6, 0
  br i1 %.not, label %._crit_edge, label %.lr.ph

.lr.ph:                                           ; preds = %5
  %9 = getelementptr inbounds nuw i8, ptr %3, i64 4
  br label %10

10:                                               ; preds = %.lr.ph, %10
  %.041 = phi i32 [ 3, %.lr.ph ], [ %32, %10 ]
  %.03840 = phi i8 [ 0, %.lr.ph ], [ %33, %10 ]
  %11 = load i32, ptr @hf_bthci_evt_bd_addr, align 4
  %12 = load i32, ptr %3, align 8
  %13 = load i32, ptr %9, align 4
  %14 = icmp eq i8 %.03840, 0
  %15 = select i1 %14, ptr %4, ptr null
  %16 = tail call i32 @dissect_bd_addr(i32 noundef %11, ptr noundef %1, ptr noundef %2, ptr noundef %0, i32 noundef %.041, i1 noundef zeroext false, i32 noundef %12, i32 noundef %13, ptr noundef %15)
  %17 = load i32, ptr @hf_bthci_evt_page_scan_repetition_mode, align 4
  %18 = tail call ptr @proto_tree_add_item(ptr noundef %2, i32 noundef %17, ptr noundef %0, i32 noundef %16, i32 noundef 1, i32 noundef -2147483648)
  %19 = add i32 %16, 1
  %20 = load i32, ptr @hf_bthci_evt_reserved, align 4
  %21 = tail call ptr @proto_tree_add_item(ptr noundef %2, i32 noundef %20, ptr noundef %0, i32 noundef %19, i32 noundef 1, i32 noundef 0)
  %22 = add i32 %16, 2
  %23 = load ptr, ptr @btcommon_cod_handle, align 8
  %24 = tail call ptr @tvb_new_subset_length(ptr noundef %0, i32 noundef %22, i32 noundef 3)
  %25 = tail call i32 @call_dissector(ptr noundef %23, ptr noundef %24, ptr noundef %1, ptr noundef %2)
  %26 = add i32 %16, 5
  %27 = load i32, ptr @hf_bthci_evt_clock_offset, align 4
  %28 = tail call ptr @proto_tree_add_item(ptr noundef %2, i32 noundef %27, ptr noundef %0, i32 noundef %26, i32 noundef 2, i32 noundef -2147483648)
  %29 = add i32 %16, 7
  %30 = load i32, ptr @hf_bthci_evt_rssi, align 4
  %31 = tail call ptr @proto_tree_add_item(ptr noundef %2, i32 noundef %30, ptr noundef %0, i32 noundef %29, i32 noundef 1, i32 noundef -2147483648)
  %32 = add i32 %16, 8
  %33 = add nuw i8 %.03840, 1
  %exitcond.not = icmp eq i8 %33, %6
  br i1 %exitcond.not, label %._crit_edge, label %10, !llvm.loop !21

._crit_edge:                                      ; preds = %10, %5
  %.0.lcssa = phi i32 [ 3, %5 ], [ %32, %10 ]
  ret i32 %.0.lcssa
}